target datalayout = "e-m:e-p270:32:32-p271:32:32-p272:64:64-i64:64-f80:128-n8:16:32:64-S128"
target triple = "x86_64-pc-linux-gnu"

@.str = private unnamed_addr constant [3 x i8] c"%d\00", align 1
@.str.1 = private unnamed_addr constant [3 x i8] c"%s\00", align 1
@.str.2 = private unnamed_addr constant [3 x i8] c"NO\00", align 1
@.str.3 = private unnamed_addr constant [4 x i8] c"%d\0A\00", align 1
@.str.4 = private unnamed_addr constant [4 x i8] c"%s\0A\00", align 1

; Function Attrs: noinline nounwind uwtable
define dso_local i32 @main() #0 {
  %1 = alloca i32, align 4
  %2 = alloca i32, align 4
  %3 = alloca i32, align 4
  %4 = alloca i32, align 4
  %5 = alloca i32, align 4
  %6 = alloca i32, align 4
  %7 = alloca i32, align 4
  %8 = alloca i32, align 4
  %9 = alloca [500 x i32], align 16
  %10 = alloca [500 x i8], align 16
  %11 = alloca [500 x [5 x i8]], align 16
  store i32 0, i32* %1, align 4
  store i32 0, i32* %3, align 4
  store i32 0, i32* %4, align 4
  store i32 0, i32* %8, align 4
  %12 = bitcast [500 x i32]* %9 to i8*
  call void @llvm.memset.p0i8.i64(i8* align 16 %12, i8 0, i64 2000, i1 false)
  %13 = call i32 (i8*, ...) @__isoc99_scanf(i8* getelementptr inbounds ([3 x i8], [3 x i8]* @.str, i64 0, i64 0), i32* %2)
  %14 = getelementptr inbounds [500 x i8], [500 x i8]* %10, i64 0, i64 0
  %15 = call i32 (i8*, ...) @__isoc99_scanf(i8* getelementptr inbounds ([3 x i8], [3 x i8]* @.str.1, i64 0, i64 0), i8* %14)
  %16 = getelementptr inbounds [500 x i8], [500 x i8]* %10, i64 0, i64 0
  %17 = call i64 @strlen(i8* %16) #4
  %18 = trunc i64 %17 to i32
  store i32 %18, i32* %5, align 4
  store i32 0, i32* %6, align 4
  br label %19

19:                                               ; preds = %58, %0
  %20 = load i32, i32* %6, align 4
  %21 = load i32, i32* %5, align 4
  %22 = load i32, i32* %2, align 4
  %23 = sub nsw i32 %21, %22
  %24 = add nsw i32 %23, 1
  %25 = icmp slt i32 %20, %24
  br i1 %25, label %26, label %61

26:                                               ; preds = %19
  %27 = load i32, i32* %6, align 4
  %28 = sext i32 %27 to i64
  %29 = getelementptr inbounds [500 x [5 x i8]], [500 x [5 x i8]]* %11, i64 0, i64 %28
  %30 = load i32, i32* %2, align 4
  %31 = sext i32 %30 to i64
  %32 = getelementptr inbounds [5 x i8], [5 x i8]* %29, i64 0, i64 %31
  store i8 0, i8* %32, align 1
  store i32 0, i32* %3, align 4
  store i32 0, i32* %7, align 4
  br label %33

33:                                               ; preds = %52, %26
  %34 = load i32, i32* %7, align 4
  %35 = load i32, i32* %2, align 4
  %36 = icmp slt i32 %34, %35
  br i1 %36, label %37, label %55

37:                                               ; preds = %33
  %38 = load i32, i32* %3, align 4
  %39 = load i32, i32* %4, align 4
  %40 = add nsw i32 %38, %39
  %41 = sext i32 %40 to i64
  %42 = getelementptr inbounds [500 x i8], [500 x i8]* %10, i64 0, i64 %41
  %43 = load i8, i8* %42, align 1
  %44 = load i32, i32* %6, align 4
  %45 = sext i32 %44 to i64
  %46 = getelementptr inbounds [500 x [5 x i8]], [500 x [5 x i8]]* %11, i64 0, i64 %45
  %47 = load i32, i32* %7, align 4
  %48 = sext i32 %47 to i64
  %49 = getelementptr inbounds [5 x i8], [5 x i8]* %46, i64 0, i64 %48
  store i8 %43, i8* %49, align 1
  %50 = load i32, i32* %3, align 4
  %51 = add nsw i32 %50, 1
  store i32 %51, i32* %3, align 4
  br label %52

52:                                               ; preds = %37
  %53 = load i32, i32* %7, align 4
  %54 = add nsw i32 %53, 1
  store i32 %54, i32* %7, align 4
  br label %33

55:                                               ; preds = %33
  %56 = load i32, i32* %4, align 4
  %57 = add nsw i32 %56, 1
  store i32 %57, i32* %4, align 4
  br label %58

58:                                               ; preds = %55
  %59 = load i32, i32* %6, align 4
  %60 = add nsw i32 %59, 1
  store i32 %60, i32* %6, align 4
  br label %19

61:                                               ; preds = %19
  store i32 0, i32* %6, align 4
  br label %62

62:                                               ; preds = %99, %61
  %63 = load i32, i32* %6, align 4
  %64 = load i32, i32* %5, align 4
  %65 = load i32, i32* %2, align 4
  %66 = sub nsw i32 %64, %65
  %67 = add nsw i32 %66, 1
  %68 = icmp slt i32 %63, %67
  br i1 %68, label %69, label %102

69:                                               ; preds = %62
  store i32 0, i32* %7, align 4
  br label %70

70:                                               ; preds = %95, %69
  %71 = load i32, i32* %7, align 4
  %72 = load i32, i32* %5, align 4
  %73 = load i32, i32* %2, align 4
  %74 = sub nsw i32 %72, %73
  %75 = add nsw i32 %74, 1
  %76 = icmp slt i32 %71, %75
  br i1 %76, label %77, label %98

77:                                               ; preds = %70
  %78 = load i32, i32* %7, align 4
  %79 = sext i32 %78 to i64
  %80 = getelementptr inbounds [500 x [5 x i8]], [500 x [5 x i8]]* %11, i64 0, i64 %79
  %81 = getelementptr inbounds [5 x i8], [5 x i8]* %80, i64 0, i64 0
  %82 = load i32, i32* %6, align 4
  %83 = sext i32 %82 to i64
  %84 = getelementptr inbounds [500 x [5 x i8]], [500 x [5 x i8]]* %11, i64 0, i64 %83
  %85 = getelementptr inbounds [5 x i8], [5 x i8]* %84, i64 0, i64 0
  %86 = call i32 @strcmp(i8* %81, i8* %85) #4
  %87 = icmp eq i32 %86, 0
  br i1 %87, label %88, label %94

88:                                               ; preds = %77
  %89 = load i32, i32* %6, align 4
  %90 = sext i32 %89 to i64
  %91 = getelementptr inbounds [500 x i32], [500 x i32]* %9, i64 0, i64 %90
  %92 = load i32, i32* %91, align 4
  %93 = add nsw i32 %92, 1
  store i32 %93, i32* %91, align 4
  br label %94

94:                                               ; preds = %88, %77
  br label %95

95:                                               ; preds = %94
  %96 = load i32, i32* %7, align 4
  %97 = add nsw i32 %96, 1
  store i32 %97, i32* %7, align 4
  br label %70

98:                                               ; preds = %70
  br label %99

99:                                               ; preds = %98
  %100 = load i32, i32* %6, align 4
  %101 = add nsw i32 %100, 1
  store i32 %101, i32* %6, align 4
  br label %62

102:                                              ; preds = %62
  store i32 0, i32* %6, align 4
  br label %103

103:                                              ; preds = %123, %102
  %104 = load i32, i32* %6, align 4
  %105 = load i32, i32* %5, align 4
  %106 = load i32, i32* %2, align 4
  %107 = sub nsw i32 %105, %106
  %108 = add nsw i32 %107, 1
  %109 = icmp slt i32 %104, %108
  br i1 %109, label %110, label %126

110:                                              ; preds = %103
  %111 = load i32, i32* %6, align 4
  %112 = sext i32 %111 to i64
  %113 = getelementptr inbounds [500 x i32], [500 x i32]* %9, i64 0, i64 %112
  %114 = load i32, i32* %113, align 4
  %115 = load i32, i32* %8, align 4
  %116 = icmp sgt i32 %114, %115
  br i1 %116, label %117, label %122

117:                                              ; preds = %110
  %118 = load i32, i32* %6, align 4
  %119 = sext i32 %118 to i64
  %120 = getelementptr inbounds [500 x i32], [500 x i32]* %9, i64 0, i64 %119
  %121 = load i32, i32* %120, align 4
  store i32 %121, i32* %8, align 4
  br label %122

122:                                              ; preds = %117, %110
  br label %123

123:                                              ; preds = %122
  %124 = load i32, i32* %6, align 4
  %125 = add nsw i32 %124, 1
  store i32 %125, i32* %6, align 4
  br label %103

126:                                              ; preds = %103
  %127 = load i32, i32* %8, align 4
  %128 = icmp eq i32 %127, 1
  br i1 %128, label %129, label %131

129:                                              ; preds = %126
  %130 = call i32 (i8*, ...) @printf(i8* getelementptr inbounds ([3 x i8], [3 x i8]* @.str.2, i64 0, i64 0))
  br label %185

131:                                              ; preds = %126
  %132 = load i32, i32* %8, align 4
  %133 = call i32 (i8*, ...) @printf(i8* getelementptr inbounds ([4 x i8], [4 x i8]* @.str.3, i64 0, i64 0), i32 %132)
  store i32 0, i32* %6, align 4
  br label %134

134:                                              ; preds = %181, %131
  %135 = load i32, i32* %6, align 4
  %136 = load i32, i32* %5, align 4
  %137 = load i32, i32* %2, align 4
  %138 = sub nsw i32 %136, %137
  %139 = add nsw i32 %138, 1
  %140 = icmp slt i32 %135, %139
  br i1 %140, label %141, label %184

141:                                              ; preds = %134
  %142 = load i32, i32* %6, align 4
  %143 = sext i32 %142 to i64
  %144 = getelementptr inbounds [500 x i32], [500 x i32]* %9, i64 0, i64 %143
  %145 = load i32, i32* %144, align 4
  %146 = load i32, i32* %8, align 4
  %147 = icmp eq i32 %145, %146
  br i1 %147, label %148, label %180

148:                                              ; preds = %141
  store i32 0, i32* %7, align 4
  br label %149

149:                                              ; preds = %166, %148
  %150 = load i32, i32* %7, align 4
  %151 = load i32, i32* %6, align 4
  %152 = icmp slt i32 %150, %151
  br i1 %152, label %153, label %169

153:                                              ; preds = %149
  %154 = load i32, i32* %7, align 4
  %155 = sext i32 %154 to i64
  %156 = getelementptr inbounds [500 x [5 x i8]], [500 x [5 x i8]]* %11, i64 0, i64 %155
  %157 = getelementptr inbounds [5 x i8], [5 x i8]* %156, i64 0, i64 0
  %158 = load i32, i32* %6, align 4
  %159 = sext i32 %158 to i64
  %160 = getelementptr inbounds [500 x [5 x i8]], [500 x [5 x i8]]* %11, i64 0, i64 %159
  %161 = getelementptr inbounds [5 x i8], [5 x i8]* %160, i64 0, i64 0
  %162 = call i32 @strcmp(i8* %157, i8* %161) #4
  %163 = icmp eq i32 %162, 0
  br i1 %163, label %164, label %165

164:                                              ; preds = %153
  br label %169

165:                                              ; preds = %153
  br label %166

166:                                              ; preds = %165
  %167 = load i32, i32* %7, align 4
  %168 = add nsw i32 %167, 1
  store i32 %168, i32* %7, align 4
  br label %149

169:                                              ; preds = %164, %149
  %170 = load i32, i32* %7, align 4
  %171 = load i32, i32* %6, align 4
  %172 = icmp sge i32 %170, %171
  br i1 %172, label %173, label %179

173:                                              ; preds = %169
  %174 = load i32, i32* %6, align 4
  %175 = sext i32 %174 to i64
  %176 = getelementptr inbounds [500 x [5 x i8]], [500 x [5 x i8]]* %11, i64 0, i64 %175
  %177 = getelementptr inbounds [5 x i8], [5 x i8]* %176, i64 0, i64 0
  %178 = call i32 (i8*, ...) @printf(i8* getelementptr inbounds ([4 x i8], [4 x i8]* @.str.4, i64 0, i64 0), i8* %177)
  br label %179

179:                                              ; preds = %173, %169
  br label %180

180:                                              ; preds = %179, %141
  br label %181

181:                                              ; preds = %180
  %182 = load i32, i32* %6, align 4
  %183 = add nsw i32 %182, 1
  store i32 %183, i32* %6, align 4
  br label %134

184:                                              ; preds = %134
  br label %185

185:                                              ; preds = %184, %129
  ret i32 0
}